; Function Attrs: nounwind uwtable
define void @Bbl_ManDfs_rec(ptr noundef %0, ptr noundef captures(none) %1) local_unnamed_addr #0 {
  %3 = tail call i32 @Bbl_ObjIsMarked(ptr noundef %0) #14
  %.not = icmp eq i32 %3, 0
  br i1 %.not, label %4, label %40

4:                                                ; preds = %2
  %5 = tail call i32 @Bbl_ObjIsInput(ptr noundef %0) #14
  %.not11 = icmp eq i32 %5, 0
  br i1 %.not11, label %6, label %40

6:                                                ; preds = %4
  %7 = tail call ptr @Bbl_ObjFaninFirst(ptr noundef %0) #14
  %.not1213 = icmp eq ptr %7, null
  br i1 %.not1213, label %._crit_edge, label %.lr.ph

.lr.ph:                                           ; preds = %6, %.lr.ph
  %.014 = phi ptr [ %8, %.lr.ph ], [ %7, %6 ]
  tail call void @Bbl_ManDfs_rec(ptr noundef nonnull %.014, ptr noundef %1)
  %8 = tail call ptr @Bbl_ObjFaninNext(ptr noundef %0, ptr noundef nonnull %.014) #14
  %.not12 = icmp eq ptr %8, null
  br i1 %.not12, label %._crit_edge, label %.lr.ph, !llvm.loop !35

._crit_edge:                                      ; preds = %.lr.ph, %6
  tail call void @Bbl_ObjMark(ptr noundef %0) #14
  %9 = getelementptr inbounds nuw i8, ptr %1, i64 4
  %10 = load i32, ptr %9, align 4, !tbaa !27
  %11 = load i32, ptr %1, align 8, !tbaa !24
  %12 = icmp eq i32 %10, %11
  br i1 %12, label %13, label %.Vec_PtrGrow.exit11_crit_edge.i

.Vec_PtrGrow.exit11_crit_edge.i:                  ; preds = %._crit_edge
  %.phi.trans.insert.i = getelementptr inbounds nuw i8, ptr %1, i64 8
  %.pre.i = load ptr, ptr %.phi.trans.insert.i, align 8, !tbaa !26
  br label %Vec_PtrPush.exit

13:                                               ; preds = %._crit_edge
  %14 = icmp slt i32 %10, 16
  br i1 %14, label %15, label %23

15:                                               ; preds = %13
  %16 = getelementptr inbounds nuw i8, ptr %1, i64 8
  %17 = load ptr, ptr %16, align 8, !tbaa !26
  %.not9.i.i = icmp eq ptr %17, null
  br i1 %.not9.i.i, label %20, label %18

18:                                               ; preds = %15
  %19 = tail call dereferenceable_or_null(128) ptr @realloc(ptr noundef nonnull %17, i64 noundef 128) #16
  br label %Vec_PtrGrow.exit.i

20:                                               ; preds = %15
  %21 = tail call noalias dereferenceable_or_null(128) ptr @malloc(i64 noundef 128) #15
  br label %Vec_PtrGrow.exit.i

Vec_PtrGrow.exit.i:                               ; preds = %20, %18
  %22 = phi ptr [ %19, %18 ], [ %21, %20 ]
  store ptr %22, ptr %16, align 8, !tbaa !26
  store i32 16, ptr %1, align 8, !tbaa !24
  br label %Vec_PtrPush.exit

23:                                               ; preds = %13
  %24 = shl nuw nsw i32 %10, 1
  %25 = getelementptr inbounds nuw i8, ptr %1, i64 8
  %26 = load ptr, ptr %25, align 8, !tbaa !26
  %.not9.i10.i = icmp eq ptr %26, null
  %27 = zext nneg i32 %24 to i64
  %28 = shl nuw nsw i64 %27, 3
  br i1 %.not9.i10.i, label %31, label %29

29:                                               ; preds = %23
  %30 = tail call ptr @realloc(ptr noundef nonnull %26, i64 noundef %28) #16
  br label %33

31:                                               ; preds = %23
  %32 = tail call noalias ptr @malloc(i64 noundef %28) #15
  br label %33

33:                                               ; preds = %31, %29
  %34 = phi ptr [ %30, %29 ], [ %32, %31 ]
  store ptr %34, ptr %25, align 8, !tbaa !26
  store i32 %24, ptr %1, align 8, !tbaa !24
  br label %Vec_PtrPush.exit

Vec_PtrPush.exit:                                 ; preds = %.Vec_PtrGrow.exit11_crit_edge.i, %Vec_PtrGrow.exit.i, %33
  %35 = phi ptr [ %.pre.i, %.Vec_PtrGrow.exit11_crit_edge.i ], [ %34, %33 ], [ %22, %Vec_PtrGrow.exit.i ]
  %36 = load i32, ptr %9, align 4, !tbaa !27
  %37 = add nsw i32 %36, 1
  store i32 %37, ptr %9, align 4, !tbaa !27
  %38 = sext i32 %36 to i64
  %39 = getelementptr inbounds ptr, ptr %35, i64 %38
  store ptr %0, ptr %39, align 8, !tbaa !30
  br label %40

40:                                               ; preds = %2, %4, %Vec_PtrPush.exit
  ret void
}